; Function Attrs: mustprogress nofree norecurse nosync nounwind willreturn memory(argmem: readwrite) uwtable
define void @stbtt__buf_skip(ptr noundef captures(none) %0, i32 noundef %1) local_unnamed_addr #2 {
  %3 = getelementptr inbounds nuw i8, ptr %0, i64 8
  %4 = load i32, ptr %3, align 8, !tbaa !3
  %5 = add nsw i32 %4, %1
  %6 = getelementptr inbounds nuw i8, ptr %0, i64 12
  %7 = load i32, ptr %6, align 4, !tbaa !10
  %8 = icmp slt i32 %5, 0
  %9 = tail call i32 @llvm.smin.i32(i32 %5, i32 %7)
  %..i = select i1 %8, i32 %7, i32 %9
  store i32 %..i, ptr %3, align 8, !tbaa !3
  ret void
}